; ModuleID = '77.c'
source_filename = "77.c"
target datalayout = "e-m:e-p270:32:32-p271:32:32-p272:64:64-i64:64-f80:128-n8:16:32:64-S128"
target triple = "x86_64-pc-linux-gnu"

@.str = private unnamed_addr constant [3 x i8] c"%d\00", align 1

; Function Attrs: noinline nounwind uwtable
define dso_local i32 @main() #0 {
  %1 = alloca i32, align 4
  %2 = alloca i32, align 4
  %3 = alloca i32, align 4
  %4 = alloca i32, align 4
  %5 = alloca i32, align 4
  %6 = alloca i32, align 4
  %7 = alloca i32, align 4
  %8 = alloca i32, align 4
  %9 = alloca i32, align 4
  %10 = alloca i32, align 4
  %11 = alloca i32, align 4
  %12 = alloca i32, align 4
  %13 = alloca i32, align 4
  %14 = alloca [100 x [100 x i32]], align 16
  store i32 0, i32* %1, align 4
  %15 = call i32 (i8*, ...) @__isoc99_scanf(i8* getelementptr inbounds ([3 x i8], [3 x i8]* @.str, i64 0, i64 0), i32* %2)
  store i32 0, i32* %3, align 4
  br label %16

16:                                               ; preds = %37, %0
  %17 = load i32, i32* %3, align 4
  %18 = load i32, i32* %2, align 4
  %19 = icmp slt i32 %17, %18
  br i1 %19, label %20, label %40

20:                                               ; preds = %16
  store i32 0, i32* %4, align 4
  br label %21

21:                                               ; preds = %33, %20
  %22 = load i32, i32* %4, align 4
  %23 = load i32, i32* %2, align 4
  %24 = icmp slt i32 %22, %23
  br i1 %24, label %25, label %36

25:                                               ; preds = %21
  %26 = load i32, i32* %3, align 4
  %27 = sext i32 %26 to i64
  %28 = getelementptr inbounds [100 x [100 x i32]], [100 x [100 x i32]]* %14, i64 0, i64 %27
  %29 = load i32, i32* %4, align 4
  %30 = sext i32 %29 to i64
  %31 = getelementptr inbounds [100 x i32], [100 x i32]* %28, i64 0, i64 %30
  %32 = call i32 (i8*, ...) @__isoc99_scanf(i8* getelementptr inbounds ([3 x i8], [3 x i8]* @.str, i64 0, i64 0), i32* %31)
  br label %33

33:                                               ; preds = %25
  %34 = load i32, i32* %4, align 4
  %35 = add nsw i32 %34, 1
  store i32 %35, i32* %4, align 4
  br label %21

36:                                               ; preds = %21
  br label %37

37:                                               ; preds = %36
  %38 = load i32, i32* %3, align 4
  %39 = add nsw i32 %38, 1
  store i32 %39, i32* %3, align 4
  br label %16

40:                                               ; preds = %16
  store i32 0, i32* %6, align 4
  br label %41

41:                                               ; preds = %67, %40
  %42 = load i32, i32* %6, align 4
  %43 = load i32, i32* %2, align 4
  %44 = icmp slt i32 %42, %43
  br i1 %44, label %45, label %70

45:                                               ; preds = %41
  store i32 0, i32* %7, align 4
  br label %46

46:                                               ; preds = %63, %45
  %47 = load i32, i32* %7, align 4
  %48 = load i32, i32* %2, align 4
  %49 = icmp slt i32 %47, %48
  br i1 %49, label %50, label %66

50:                                               ; preds = %46
  %51 = load i32, i32* %6, align 4
  %52 = sext i32 %51 to i64
  %53 = getelementptr inbounds [100 x [100 x i32]], [100 x [100 x i32]]* %14, i64 0, i64 %52
  %54 = load i32, i32* %7, align 4
  %55 = sext i32 %54 to i64
  %56 = getelementptr inbounds [100 x i32], [100 x i32]* %53, i64 0, i64 %55
  %57 = load i32, i32* %56, align 4
  %58 = icmp eq i32 %57, 0
  br i1 %58, label %59, label %62

59:                                               ; preds = %50
  %60 = load i32, i32* %6, align 4
  store i32 %60, i32* %10, align 4
  %61 = load i32, i32* %7, align 4
  store i32 %61, i32* %11, align 4
  br label %62

62:                                               ; preds = %59, %50
  br label %63

63:                                               ; preds = %62
  %64 = load i32, i32* %7, align 4
  %65 = add nsw i32 %64, 1
  store i32 %65, i32* %7, align 4
  br label %46

66:                                               ; preds = %46
  br label %67

67:                                               ; preds = %66
  %68 = load i32, i32* %6, align 4
  %69 = add nsw i32 %68, 1
  store i32 %69, i32* %6, align 4
  br label %41

70:                                               ; preds = %41
  %71 = load i32, i32* %2, align 4
  %72 = sub nsw i32 %71, 1
  store i32 %72, i32* %8, align 4
  br label %73

73:                                               ; preds = %99, %70
  %74 = load i32, i32* %8, align 4
  %75 = icmp sge i32 %74, 0
  br i1 %75, label %76, label %102

76:                                               ; preds = %73
  %77 = load i32, i32* %2, align 4
  %78 = sub nsw i32 %77, 1
  store i32 %78, i32* %9, align 4
  br label %79

79:                                               ; preds = %95, %76
  %80 = load i32, i32* %9, align 4
  %81 = icmp sge i32 %80, 0
  br i1 %81, label %82, label %98

82:                                               ; preds = %79
  %83 = load i32, i32* %8, align 4
  %84 = sext i32 %83 to i64
  %85 = getelementptr inbounds [100 x [100 x i32]], [100 x [100 x i32]]* %14, i64 0, i64 %84
  %86 = load i32, i32* %9, align 4
  %87 = sext i32 %86 to i64
  %88 = getelementptr inbounds [100 x i32], [100 x i32]* %85, i64 0, i64 %87
  %89 = load i32, i32* %88, align 4
  %90 = icmp eq i32 %89, 0
  br i1 %90, label %91, label %94

91:                                               ; preds = %82
  %92 = load i32, i32* %8, align 4
  store i32 %92, i32* %12, align 4
  %93 = load i32, i32* %9, align 4
  store i32 %93, i32* %13, align 4
  br label %94

94:                                               ; preds = %91, %82
  br label %95

95:                                               ; preds = %94
  %96 = load i32, i32* %9, align 4
  %97 = add nsw i32 %96, -1
  store i32 %97, i32* %9, align 4
  br label %79

98:                                               ; preds = %79
  br label %99

99:                                               ; preds = %98
  %100 = load i32, i32* %8, align 4
  %101 = add nsw i32 %100, -1
  store i32 %101, i32* %8, align 4
  br label %73

102:                                              ; preds = %73
  %103 = load i32, i32* %10, align 4
  %104 = load i32, i32* %12, align 4
  %105 = sub nsw i32 %103, %104
  %106 = sub nsw i32 %105, 1
  %107 = load i32, i32* %11, align 4
  %108 = load i32, i32* %13, align 4
  %109 = sub nsw i32 %107, %108
  %110 = sub nsw i32 %109, 1
  %111 = mul nsw i32 %106, %110
  store i32 %111, i32* %5, align 4
  %112 = load i32, i32* %5, align 4
  %113 = call i32 (i8*, ...) @printf(i8* getelementptr inbounds ([3 x i8], [3 x i8]* @.str, i64 0, i64 0), i32 %112)
  ret i32 0
}

declare dso_local i32 @__isoc99_scanf(i8*, ...) #1

declare dso_local i32 @printf(i8*, ...) #1


!llvm.module.flags = !{!0}
!llvm.ident = !{!1}

!0 = !{i32 1, !"wchar_size", i32 4}
!1 = !{!"clang version 10.0.0-4ubuntu1 "}
